target datalayout = "e-m:e-p270:32:32-p271:32:32-p272:64:64-i64:64-i128:128-f80:128-n8:16:32:64-S128"
target triple = "x86_64-pc-linux-gnu"

%union.EX_STYPE = type { ptr }
%struct.Expr_s = type { ptr, ptr, [10 x ptr], ptr, ptr, ptr, ptr, ptr, ptr, %struct.agxbuf, %union.EX_STYPE, %struct.Exid_s, [512 x i8], ptr, i32, i32, i32, i64, i64, i32 }
%struct.agxbuf = type { %union.anon.10 }
%union.anon.10 = type { %struct.anon.11 }
%struct.anon.11 = type { ptr, i64, i64, [7 x i8], i8 }
%struct.Exid_s = type { %struct.dtlink_s_, i64, i64, i64, i64, ptr, ptr, [32 x i8] }
%struct.dtlink_s_ = type { ptr, %union.anon.12 }
%union.anon.12 = type { ptr }

; Function Attrs: nounwind uwtable
define internal ptr @str_and(ptr noundef %0, ptr noundef %1, ptr noundef %2) #0 {
  %4 = alloca ptr, align 8
  %5 = alloca ptr, align 8
  %6 = alloca ptr, align 8
  %7 = alloca ptr, align 8
  %8 = alloca i64, align 8
  %9 = alloca ptr, align 8
  %10 = alloca ptr, align 8
  %11 = alloca i32, align 4
  %12 = alloca i64, align 8
  %13 = alloca ptr, align 8
  store ptr %0, ptr %5, align 8, !tbaa !3
  store ptr %1, ptr %6, align 8, !tbaa !42
  store ptr %2, ptr %7, align 8, !tbaa !42
  call void @llvm.lifetime.start.p0(i64 8, ptr %8) #15
  store i64 1, ptr %8, align 8, !tbaa !45
  call void @llvm.lifetime.start.p0(i64 8, ptr %9) #15
  %14 = load ptr, ptr %6, align 8, !tbaa !42
  store ptr %14, ptr %9, align 8, !tbaa !42
  br label %15

15:                                               ; preds = %40, %3
  %16 = load ptr, ptr %9, align 8, !tbaa !42
  %17 = load i8, ptr %16, align 1, !tbaa !11
  %18 = sext i8 %17 to i32
  %19 = icmp ne i32 %18, 0
  br i1 %19, label %21, label %20

20:                                               ; preds = %15
  call void @llvm.lifetime.end.p0(i64 8, ptr %9) #15
  br label %43

21:                                               ; preds = %15
  %22 = load ptr, ptr %7, align 8, !tbaa !42
  %23 = load ptr, ptr %9, align 8, !tbaa !42
  %24 = load i8, ptr %23, align 1, !tbaa !11
  %25 = sext i8 %24 to i32
  %26 = call ptr @strchr(ptr noundef %22, i32 noundef %25) #18
  %27 = icmp ne ptr %26, null
  br i1 %27, label %28, label %39

28:                                               ; preds = %21
  %29 = load ptr, ptr %9, align 8, !tbaa !42
  %30 = getelementptr inbounds i8, ptr %29, i64 1
  %31 = load ptr, ptr %9, align 8, !tbaa !42
  %32 = load i8, ptr %31, align 1, !tbaa !11
  %33 = sext i8 %32 to i32
  %34 = call ptr @strchr(ptr noundef %30, i32 noundef %33) #18
  %35 = icmp eq ptr %34, null
  br i1 %35, label %36, label %39

36:                                               ; preds = %28
  %37 = load i64, ptr %8, align 8, !tbaa !45
  %38 = add i64 %37, 1
  store i64 %38, ptr %8, align 8, !tbaa !45
  br label %39

39:                                               ; preds = %36, %28, %21
  br label %40

40:                                               ; preds = %39
  %41 = load ptr, ptr %9, align 8, !tbaa !42
  %42 = getelementptr inbounds nuw i8, ptr %41, i32 1
  store ptr %42, ptr %9, align 8, !tbaa !42
  br label %15, !llvm.loop !110

43:                                               ; preds = %20
  call void @llvm.lifetime.start.p0(i64 8, ptr %10) #15
  %44 = load ptr, ptr %5, align 8, !tbaa !3
  %45 = getelementptr inbounds nuw %struct.Expr_s, ptr %44, i32 0, i32 4
  %46 = load ptr, ptr %45, align 8, !tbaa !74
  %47 = load i64, ptr %8, align 8, !tbaa !45
  %48 = call ptr @vmalloc(ptr noundef %46, i64 noundef %47)
  store ptr %48, ptr %10, align 8, !tbaa !42
  %49 = load ptr, ptr %10, align 8, !tbaa !42
  %50 = icmp eq ptr %49, null
  br i1 %50, label %51, label %53

51:                                               ; preds = %43
  %52 = call ptr @exnospace()
  store ptr %52, ptr %4, align 8
  store i32 1, ptr %11, align 4
  br label %93

53:                                               ; preds = %43
  call void @llvm.lifetime.start.p0(i64 8, ptr %12) #15
  store i64 0, ptr %12, align 8, !tbaa !45
  call void @llvm.lifetime.start.p0(i64 8, ptr %13) #15
  %54 = load ptr, ptr %6, align 8, !tbaa !42
  store ptr %54, ptr %13, align 8, !tbaa !42
  br label %55

55:                                               ; preds = %85, %53
  %56 = load ptr, ptr %13, align 8, !tbaa !42
  %57 = load i8, ptr %56, align 1, !tbaa !11
  %58 = sext i8 %57 to i32
  %59 = icmp ne i32 %58, 0
  br i1 %59, label %61, label %60

60:                                               ; preds = %55
  store i32 5, ptr %11, align 4
  call void @llvm.lifetime.end.p0(i64 8, ptr %13) #15
  br label %88

61:                                               ; preds = %55
  %62 = load ptr, ptr %7, align 8, !tbaa !42
  %63 = load ptr, ptr %13, align 8, !tbaa !42
  %64 = load i8, ptr %63, align 1, !tbaa !11
  %65 = sext i8 %64 to i32
  %66 = call ptr @strchr(ptr noundef %62, i32 noundef %65) #18
  %67 = icmp ne ptr %66, null
  br i1 %67, label %68, label %84

68:                                               ; preds = %61
  %69 = load ptr, ptr %13, align 8, !tbaa !42
  %70 = getelementptr inbounds i8, ptr %69, i64 1
  %71 = load ptr, ptr %13, align 8, !tbaa !42
  %72 = load i8, ptr %71, align 1, !tbaa !11
  %73 = sext i8 %72 to i32
  %74 = call ptr @strchr(ptr noundef %70, i32 noundef %73) #18
  %75 = icmp eq ptr %74, null
  br i1 %75, label %76, label %84

76:                                               ; preds = %68
  %77 = load ptr, ptr %13, align 8, !tbaa !42
  %78 = load i8, ptr %77, align 1, !tbaa !11
  %79 = load ptr, ptr %10, align 8, !tbaa !42
  %80 = load i64, ptr %12, align 8, !tbaa !45
  %81 = getelementptr inbounds nuw i8, ptr %79, i64 %80
  store i8 %78, ptr %81, align 1, !tbaa !11
  %82 = load i64, ptr %12, align 8, !tbaa !45
  %83 = add i64 %82, 1
  store i64 %83, ptr %12, align 8, !tbaa !45
  br label %84

84:                                               ; preds = %76, %68, %61
  br label %85

85:                                               ; preds = %84
  %86 = load ptr, ptr %13, align 8, !tbaa !42
  %87 = getelementptr inbounds nuw i8, ptr %86, i32 1
  store ptr %87, ptr %13, align 8, !tbaa !42
  br label %55, !llvm.loop !111

88:                                               ; preds = %60
  %89 = load ptr, ptr %10, align 8, !tbaa !42
  %90 = load i64, ptr %12, align 8, !tbaa !45
  %91 = getelementptr inbounds nuw i8, ptr %89, i64 %90
  store i8 0, ptr %91, align 1, !tbaa !11
  %92 = load ptr, ptr %10, align 8, !tbaa !42
  store ptr %92, ptr %4, align 8
  store i32 1, ptr %11, align 4
  call void @llvm.lifetime.end.p0(i64 8, ptr %12) #15
  br label %93

93:                                               ; preds = %88, %51
  call void @llvm.lifetime.end.p0(i64 8, ptr %10) #15
  call void @llvm.lifetime.end.p0(i64 8, ptr %8) #15
  %94 = load ptr, ptr %4, align 8
  ret ptr %94
}