; Function Attrs: nounwind uwtable
define internal fastcc ptr @str_and(ptr noundef readonly captures(none) %0, ptr noundef readonly %1, ptr noundef readonly %2) unnamed_addr #0 {
  %4 = load i8, ptr %1, align 1, !tbaa !3
  %.not36 = icmp eq i8 %4, 0
  br i1 %.not36, label %._crit_edge, label %.lr.ph

._crit_edge:                                      ; preds = %17, %3
  %.028.lcssa = phi i64 [ 1, %3 ], [ %.129, %17 ]
  %5 = getelementptr inbounds nuw i8, ptr %0, i64 104
  %6 = load ptr, ptr %5, align 8, !tbaa !67
  %7 = tail call ptr @vmalloc(ptr noundef %6, i64 noundef %.028.lcssa) #25
  %8 = icmp eq ptr %7, null
  br i1 %8, label %20, label %.preheader

.preheader:                                       ; preds = %._crit_edge
  %9 = load i8, ptr %1, align 1, !tbaa !3
  %.not3339 = icmp eq i8 %9, 0
  br i1 %.not3339, label %._crit_edge43, label %.lr.ph42

.lr.ph:                                           ; preds = %3, %17
  %.in = phi i8 [ %19, %17 ], [ %4, %3 ]
  %.02738 = phi ptr [ %18, %17 ], [ %1, %3 ]
  %.02837 = phi i64 [ %.129, %17 ], [ 1, %3 ]
  %10 = sext i8 %.in to i32
  %11 = tail call ptr @strchr(ptr noundef nonnull dereferenceable(1) %2, i32 noundef %10) #30
  %.not35 = icmp eq ptr %11, null
  br i1 %.not35, label %17, label %12

12:                                               ; preds = %.lr.ph
  %13 = getelementptr inbounds nuw i8, ptr %.02738, i64 1
  %14 = tail call ptr @strchr(ptr noundef nonnull dereferenceable(1) %13, i32 noundef %10) #30
  %15 = icmp eq ptr %14, null
  %16 = zext i1 %15 to i64
  %spec.select = add i64 %.02837, %16
  br label %17

17:                                               ; preds = %12, %.lr.ph
  %.129 = phi i64 [ %.02837, %.lr.ph ], [ %spec.select, %12 ]
  %18 = getelementptr inbounds nuw i8, ptr %.02738, i64 1
  %19 = load i8, ptr %18, align 1, !tbaa !3
  %.not = icmp eq i8 %19, 0
  br i1 %.not, label %._crit_edge, label %.lr.ph, !llvm.loop !101

20:                                               ; preds = %._crit_edge
  %21 = tail call ptr @exnospace() #25
  br label %36

._crit_edge43:                                    ; preds = %33, %.preheader
  %.025.lcssa = phi i64 [ 0, %.preheader ], [ %.1, %33 ]
  %22 = getelementptr inbounds nuw i8, ptr %7, i64 %.025.lcssa
  store i8 0, ptr %22, align 1, !tbaa !3
  br label %36

.lr.ph42:                                         ; preds = %.preheader, %33
  %23 = phi i8 [ %35, %33 ], [ %9, %.preheader ]
  %.041 = phi ptr [ %34, %33 ], [ %1, %.preheader ]
  %.02540 = phi i64 [ %.1, %33 ], [ 0, %.preheader ]
  %24 = sext i8 %23 to i32
  %25 = tail call ptr @strchr(ptr noundef nonnull dereferenceable(1) %2, i32 noundef %24) #30
  %.not34 = icmp eq ptr %25, null
  br i1 %.not34, label %33, label %26

26:                                               ; preds = %.lr.ph42
  %27 = getelementptr inbounds nuw i8, ptr %.041, i64 1
  %28 = tail call ptr @strchr(ptr noundef nonnull dereferenceable(1) %27, i32 noundef %24) #30
  %29 = icmp eq ptr %28, null
  br i1 %29, label %30, label %33

30:                                               ; preds = %26
  %31 = getelementptr inbounds nuw i8, ptr %7, i64 %.02540
  store i8 %23, ptr %31, align 1, !tbaa !3
  %32 = add i64 %.02540, 1
  br label %33

33:                                               ; preds = %.lr.ph42, %26, %30
  %.1 = phi i64 [ %32, %30 ], [ %.02540, %26 ], [ %.02540, %.lr.ph42 ]
  %34 = getelementptr inbounds nuw i8, ptr %.041, i64 1
  %35 = load i8, ptr %34, align 1, !tbaa !3
  %.not33 = icmp eq i8 %35, 0
  br i1 %.not33, label %._crit_edge43, label %.lr.ph42, !llvm.loop !102

36:                                               ; preds = %._crit_edge43, %20
  %.026 = phi ptr [ %21, %20 ], [ %7, %._crit_edge43 ]
  ret ptr %.026
}